target datalayout = "e-m:e-p270:32:32-p271:32:32-p272:64:64-i64:64-i128:128-f80:128-n8:16:32:64-S128"
target triple = "x86_64-unknown-linux-gnu"

%struct.File = type { ptr, i32, ptr, ptr, i32 }

; Function Attrs: nounwind uwtable
define dso_local ptr @new_file(ptr noundef %name, i32 noundef %file_no, ptr noundef %contents) #4 {
entry:
  %name.addr = alloca ptr, align 8
  %file_no.addr = alloca i32, align 4
  %contents.addr = alloca ptr, align 8
  %file = alloca ptr, align 8
  store ptr %name, ptr %name.addr, align 8
  store i32 %file_no, ptr %file_no.addr, align 4
  store ptr %contents, ptr %contents.addr, align 8
  %call = call noalias ptr @calloc(i64 noundef 1, i64 noundef 40) #15
  store ptr %call, ptr %file, align 8
  %0 = load ptr, ptr %name.addr, align 8
  %1 = load ptr, ptr %file, align 8
  %name1 = getelementptr inbounds %struct.File, ptr %1, i32 0, i32 0
  store ptr %0, ptr %name1, align 8
  %2 = load ptr, ptr %name.addr, align 8
  %3 = load ptr, ptr %file, align 8
  %display_name = getelementptr inbounds %struct.File, ptr %3, i32 0, i32 3
  store ptr %2, ptr %display_name, align 8
  %4 = load i32, ptr %file_no.addr, align 4
  %5 = load ptr, ptr %file, align 8
  %file_no2 = getelementptr inbounds %struct.File, ptr %5, i32 0, i32 1
  store i32 %4, ptr %file_no2, align 8
  %6 = load ptr, ptr %contents.addr, align 8
  %7 = load ptr, ptr %file, align 8
  %contents3 = getelementptr inbounds %struct.File, ptr %7, i32 0, i32 2
  store ptr %6, ptr %contents3, align 8
  %8 = load ptr, ptr %file, align 8
  ret ptr %8
}