; Function Attrs: mustprogress nofree nounwind willreturn memory(write, argmem: none, inaccessiblemem: readwrite) uwtable
define dso_local noalias noundef ptr @new_file(ptr noundef %name, i32 noundef %file_no, ptr noundef %contents) local_unnamed_addr #14 {
entry:
  %call = tail call noalias dereferenceable_or_null(40) ptr @calloc(i64 noundef 1, i64 noundef 40) #29
  store ptr %name, ptr %call, align 8
  %display_name = getelementptr inbounds %struct.File, ptr %call, i64 0, i32 3
  store ptr %name, ptr %display_name, align 8
  %file_no2 = getelementptr inbounds %struct.File, ptr %call, i64 0, i32 1
  store i32 %file_no, ptr %file_no2, align 8
  %contents3 = getelementptr inbounds %struct.File, ptr %call, i64 0, i32 2
  store ptr %contents, ptr %contents3, align 8
  ret ptr %call
}